target datalayout = "e-m:e-p270:32:32-p271:32:32-p272:64:64-i64:64-i128:128-f80:128-n8:16:32:64-S128"
target triple = "x86_64-pc-linux-gnu"

%struct._packet_info = type { ptr, ptr, i32, i32, %struct.nstime_t, %struct.nstime_t, %struct.nstime_t, i32, ptr, ptr, ptr, ptr, %struct._address, %struct._address, %struct._address, %struct._address, %struct._address, %struct._address, i32, ptr, i32, %struct.anon, i32, i32, i32, i32, ptr, i32, ptr, ptr, i16, i16, i32, i32, i16, i32, i32, ptr, ptr, ptr, i8, i8, i16, i16, i16, i32, i16, i16, ptr, ptr, ptr, ptr, ptr, i32 }
%struct.nstime_t = type { i64, i32 }
%struct._address = type { i32, i32, ptr, ptr }
%struct.anon = type { i8, [3 x i8] }

@hf_pn_io_ar_uuid = internal global i32 0, align 4
@hf_pn_io_api = internal global i32 0, align 4
@hf_pn_io_slot_nr = internal global i32 0, align 4
@hf_pn_io_subslot_nr = internal global i32 0, align 4
@hf_pn_io_index = internal global i32 0, align 4
@hf_pn_io_seq_number = internal global i32 0, align 4
@.str.1321 = private unnamed_addr constant [7 x i8] c"(0x%x)\00", align 1
@.str.1327 = private unnamed_addr constant [35 x i8] c": Seq:%u, Api:0x%x, Slot:0x%x/0x%x\00", align 1
@.str.1328 = private unnamed_addr constant [37 x i8] c", Api:0x%x, Slot:0x%x/0x%x, Index:%s\00", align 1

; Function Attrs: nounwind uwtable
define internal i32 @dissect_ReadWrite_header(ptr noundef %0, i32 noundef %1, ptr noundef %2, ptr noundef %3, ptr noundef %4, ptr noundef %5, ptr noundef %6, ptr noundef %7) #0 {
  %9 = alloca ptr, align 8
  %10 = alloca i32, align 4
  %11 = alloca ptr, align 8
  %12 = alloca ptr, align 8
  %13 = alloca ptr, align 8
  %14 = alloca ptr, align 8
  %15 = alloca ptr, align 8
  %16 = alloca ptr, align 8
  %17 = alloca i32, align 4
  %18 = alloca i16, align 2
  %19 = alloca i16, align 2
  %20 = alloca i16, align 2
  store ptr %0, ptr %9, align 8
  store i32 %1, ptr %10, align 4
  store ptr %2, ptr %11, align 8
  store ptr %3, ptr %12, align 8
  store ptr %4, ptr %13, align 8
  store ptr %5, ptr %14, align 8
  store ptr %6, ptr %15, align 8
  store ptr %7, ptr %16, align 8
  %21 = load ptr, ptr %9, align 8
  %22 = load i32, ptr %10, align 4
  %23 = load ptr, ptr %11, align 8
  %24 = load ptr, ptr %12, align 8
  %25 = load ptr, ptr %14, align 8
  %26 = load i32, ptr @hf_pn_io_seq_number, align 4
  %27 = call i32 @dissect_dcerpc_uint16(ptr noundef %21, i32 noundef %22, ptr noundef %23, ptr noundef %24, ptr noundef %25, i32 noundef %26, ptr noundef %20)
  store i32 %27, ptr %10, align 4
  %28 = load ptr, ptr %9, align 8
  %29 = load i32, ptr %10, align 4
  %30 = load ptr, ptr %11, align 8
  %31 = load ptr, ptr %12, align 8
  %32 = load ptr, ptr %14, align 8
  %33 = load i32, ptr @hf_pn_io_ar_uuid, align 4
  %34 = load ptr, ptr %16, align 8
  %35 = call i32 @dissect_dcerpc_uuid_t(ptr noundef %28, i32 noundef %29, ptr noundef %30, ptr noundef %31, ptr noundef %32, i32 noundef %33, ptr noundef %34)
  store i32 %35, ptr %10, align 4
  %36 = load ptr, ptr %9, align 8
  %37 = load i32, ptr %10, align 4
  %38 = load ptr, ptr %11, align 8
  %39 = load ptr, ptr %12, align 8
  %40 = load ptr, ptr %14, align 8
  %41 = load i32, ptr @hf_pn_io_api, align 4
  %42 = call i32 @dissect_dcerpc_uint32(ptr noundef %36, i32 noundef %37, ptr noundef %38, ptr noundef %39, ptr noundef %40, i32 noundef %41, ptr noundef %17)
  store i32 %42, ptr %10, align 4
  %43 = load ptr, ptr %9, align 8
  %44 = load i32, ptr %10, align 4
  %45 = load ptr, ptr %11, align 8
  %46 = load ptr, ptr %12, align 8
  %47 = load ptr, ptr %14, align 8
  %48 = load i32, ptr @hf_pn_io_slot_nr, align 4
  %49 = call i32 @dissect_dcerpc_uint16(ptr noundef %43, i32 noundef %44, ptr noundef %45, ptr noundef %46, ptr noundef %47, i32 noundef %48, ptr noundef %18)
  store i32 %49, ptr %10, align 4
  %50 = load ptr, ptr %9, align 8
  %51 = load i32, ptr %10, align 4
  %52 = load ptr, ptr %11, align 8
  %53 = load ptr, ptr %12, align 8
  %54 = load ptr, ptr %14, align 8
  %55 = load i32, ptr @hf_pn_io_subslot_nr, align 4
  %56 = call i32 @dissect_dcerpc_uint16(ptr noundef %50, i32 noundef %51, ptr noundef %52, ptr noundef %53, ptr noundef %54, i32 noundef %55, ptr noundef %19)
  store i32 %56, ptr %10, align 4
  %57 = load ptr, ptr %9, align 8
  %58 = load i32, ptr %10, align 4
  %59 = load ptr, ptr %11, align 8
  %60 = load ptr, ptr %12, align 8
  %61 = call i32 @dissect_pn_padding(ptr noundef %57, i32 noundef %58, ptr noundef %59, ptr noundef %60, i32 noundef 2)
  store i32 %61, ptr %10, align 4
  %62 = load ptr, ptr %9, align 8
  %63 = load i32, ptr %10, align 4
  %64 = load ptr, ptr %11, align 8
  %65 = load ptr, ptr %12, align 8
  %66 = load ptr, ptr %14, align 8
  %67 = load i32, ptr @hf_pn_io_index, align 4
  %68 = load ptr, ptr %15, align 8
  %69 = call i32 @dissect_dcerpc_uint16(ptr noundef %62, i32 noundef %63, ptr noundef %64, ptr noundef %65, ptr noundef %66, i32 noundef %67, ptr noundef %68)
  store i32 %69, ptr %10, align 4
  %70 = load ptr, ptr %13, align 8
  %71 = load i16, ptr %20, align 2
  %72 = zext i16 %71 to i32
  %73 = load i32, ptr %17, align 4
  %74 = load i16, ptr %18, align 2
  %75 = zext i16 %74 to i32
  %76 = load i16, ptr %19, align 2
  %77 = zext i16 %76 to i32
  call void (ptr, ptr, ...) @proto_item_append_text(ptr noundef %70, ptr noundef @.str.1327, i32 noundef %72, i32 noundef %73, i32 noundef %75, i32 noundef %77)
  %78 = load ptr, ptr %11, align 8
  %79 = getelementptr inbounds %struct._packet_info, ptr %78, i32 0, i32 1
  %80 = load ptr, ptr %79, align 8
  %81 = load i32, ptr %17, align 4
  %82 = load i16, ptr %18, align 2
  %83 = zext i16 %82 to i32
  %84 = load i16, ptr %19, align 2
  %85 = zext i16 %84 to i32
  %86 = load ptr, ptr %15, align 8
  %87 = load i16, ptr %86, align 2
  %88 = zext i16 %87 to i32
  %89 = call ptr @val_to_str(i32 noundef %88, ptr noundef @pn_io_index, ptr noundef @.str.1321)
  call void (ptr, i32, ptr, ...) @col_append_fstr(ptr noundef %80, i32 noundef 25, ptr noundef @.str.1328, i32 noundef %81, i32 noundef %83, i32 noundef %85, ptr noundef %89)
  %90 = load i32, ptr %10, align 4
  ret i32 %90
}