; Function Attrs: nounwind uwtable
define internal fastcc i32 @dissect_ReadWrite_header(ptr noundef %0, i32 noundef %1, ptr noundef %2, ptr noundef %3, ptr noundef %4, ptr noundef %5, ptr noundef nonnull %6, ptr noundef nonnull %7) unnamed_addr #0 {
  %9 = alloca i32, align 4
  %10 = alloca i16, align 2
  %11 = alloca i16, align 2
  %12 = alloca i16, align 2
  %13 = load i32, ptr @hf_pn_io_seq_number, align 4
  %14 = call i32 @dissect_dcerpc_uint16(ptr noundef %0, i32 noundef %1, ptr noundef %2, ptr noundef %3, ptr noundef %5, i32 noundef %13, ptr noundef nonnull %12) #11
  %15 = load i32, ptr @hf_pn_io_ar_uuid, align 4
  %16 = call i32 @dissect_dcerpc_uuid_t(ptr noundef %0, i32 noundef %14, ptr noundef %2, ptr noundef %3, ptr noundef %5, i32 noundef %15, ptr noundef nonnull %7) #11
  %17 = load i32, ptr @hf_pn_io_api, align 4
  %18 = call i32 @dissect_dcerpc_uint32(ptr noundef %0, i32 noundef %16, ptr noundef %2, ptr noundef %3, ptr noundef %5, i32 noundef %17, ptr noundef nonnull %9) #11
  %19 = load i32, ptr @hf_pn_io_slot_nr, align 4
  %20 = call i32 @dissect_dcerpc_uint16(ptr noundef %0, i32 noundef %18, ptr noundef %2, ptr noundef %3, ptr noundef %5, i32 noundef %19, ptr noundef nonnull %10) #11
  %21 = load i32, ptr @hf_pn_io_subslot_nr, align 4
  %22 = call i32 @dissect_dcerpc_uint16(ptr noundef %0, i32 noundef %20, ptr noundef %2, ptr noundef %3, ptr noundef %5, i32 noundef %21, ptr noundef nonnull %11) #11
  %23 = call i32 @dissect_pn_padding(ptr noundef %0, i32 noundef %22, ptr noundef %2, ptr noundef %3, i32 noundef 2) #11
  %24 = load i32, ptr @hf_pn_io_index, align 4
  %25 = call i32 @dissect_dcerpc_uint16(ptr noundef %0, i32 noundef %23, ptr noundef %2, ptr noundef %3, ptr noundef %5, i32 noundef %24, ptr noundef nonnull %6) #11
  %26 = load i16, ptr %12, align 2
  %27 = zext i16 %26 to i32
  %28 = load i32, ptr %9, align 4
  %29 = load i16, ptr %10, align 2
  %30 = zext i16 %29 to i32
  %31 = load i16, ptr %11, align 2
  %32 = zext i16 %31 to i32
  call void (ptr, ptr, ...) @proto_item_append_text(ptr noundef %4, ptr noundef nonnull @.str.1327, i32 noundef %27, i32 noundef %28, i32 noundef %30, i32 noundef %32) #11
  %33 = getelementptr inbounds nuw i8, ptr %2, i64 8
  %34 = load ptr, ptr %33, align 8
  %35 = load i32, ptr %9, align 4
  %36 = load i16, ptr %10, align 2
  %37 = zext i16 %36 to i32
  %38 = load i16, ptr %11, align 2
  %39 = zext i16 %38 to i32
  %40 = load i16, ptr %6, align 2
  %41 = zext i16 %40 to i32
  %42 = call ptr @val_to_str(i32 noundef %41, ptr noundef nonnull @pn_io_index, ptr noundef nonnull @.str.1321) #11
  call void (ptr, i32, ptr, ...) @col_append_fstr(ptr noundef %34, i32 noundef 25, ptr noundef nonnull @.str.1328, i32 noundef %35, i32 noundef %37, i32 noundef %39, ptr noundef %42) #11
  ret i32 %25
}